#include <math.h>
#include <stdio.h>
#include <stdlib.h>
#include <string.h>
#include <iostream>
using namespace std;

int main()
{
	int a[101],i,m,n;
	cin>>n;
	for(i=0;i<n;i++)
	{
	cin>>a[i];
	}
	m=i;
	for(i=m-1;i>0;i--)
	{
		cout<<a[i]<<" ";
	}cout<<a[0];
			 	cin.get();cin.get();cin.get();
	return 0;
	}
	